---
triple:          'arm64-apple-darwin'
binary-path:     toy
relocations:
  - { offset: 0x44, size: 0x8, addend: 0x0, symName: __ZN4llvm30VerifyDisableABIBreakingChecksE, symObjAddr: 0xCEE8, symBinAddr: 0x100014000, symSize: 0x0 }
  - { offset: 0xA949, size: 0x8, addend: 0x0, symName: __ZN4llvm6detail18UniqueFunctionBaseINSt3__110unique_ptrINS_11RuntimeDyld13MemoryManagerENS2_14default_deleteIS5_EEEEJEE15CallbacksHolderIZNS_3orc15KaleidoscopeJITC1ENS3_INSB_16ExecutionSessionENS6_ISD_EEEENSB_23JITTargetMachineBuilderENS_10DataLayoutEEUlvE_SI_vE9CallbacksE, symObjAddr: 0xCEF8, symBinAddr: 0x100014010, symSize: 0x0 }
  - { offset: 0xCFE42, size: 0x8, addend: 0x0, symName: __ZN4llvm8cantFailINSt3__110unique_ptrINS_3orc29DynamicLibrarySearchGeneratorENS1_14default_deleteIS4_EEEEEET_NS_8ExpectedIS8_EEPKc, symObjAddr: 0x63DC, symBinAddr: 0x100007BA8, symSize: 0x100 }
  - { offset: 0xD04C0, size: 0x8, addend: 0x0, symName: __ZN4llvmlsERNS_11raw_ostreamERKNS_5ErrorE, symObjAddr: 0x6BD8, symBinAddr: 0x1000083A4, symSize: 0xA0 }
  - { offset: 0xD0DD8, size: 0x8, addend: 0x0, symName: __MergedGlobals, symObjAddr: 0x7DE530, symBinAddr: 0x100014018, symSize: 0x0 }
  - { offset: 0x1414A2, size: 0x8, addend: 0x0, symName: __ZNSt3__119piecewise_constructE, symObjAddr: 0xDC63, symBinAddr: 0x10000EEAB, symSize: 0x0 }
  - { offset: 0x14D423, size: 0x8, addend: 0x0, symName: __ZNSt3__127__tree_balance_after_insertB8ne180100IPNS_16__tree_node_baseIPvEEEEvT_S5_, symObjAddr: 0x8B94, symBinAddr: 0x10000A360, symSize: 0x1B0 }
  - { offset: 0x14D771, size: 0x8, addend: 0x0, symName: __ZNSt3__111make_uniqueB8ne180100I12PrototypeASTJRA12_KcNS_6vectorINS_12basic_stringIcNS_11char_traitsIcEENS_9allocatorIcEEEENS9_ISB_EEEEEEENS_11__unique_ifIT_E15__unique_singleEDpOT0_, symObjAddr: 0x842C, symBinAddr: 0x100009BF8, symSize: 0x17C }
  - { offset: 0x14E14A, size: 0x8, addend: 0x0, symName: __ZNSt3__111make_uniqueB8ne180100IN4llvm3orc15KaleidoscopeJITEJNS_10unique_ptrINS2_16ExecutionSessionENS_14default_deleteIS5_EEEENS2_23JITTargetMachineBuilderENS1_10DataLayoutEEEENS_11__unique_ifIT_E15__unique_singleEDpOT0_, symObjAddr: 0x5168, symBinAddr: 0x100006934, symSize: 0x278 }
  - { offset: 0x14EB7C, size: 0x8, addend: 0x0, symName: __ZNSt3__120__throw_length_errorB8ne180100EPKc, symObjAddr: 0x551C, symBinAddr: 0x100006CE8, symSize: 0x50 }
  - { offset: 0x14FB18, size: 0x8, addend: 0x0, symName: __ZNSt3__111make_uniqueB8ne180100IN4llvm3orc20ConcurrentIRCompilerEJNS2_23JITTargetMachineBuilderEEEENS_11__unique_ifIT_E15__unique_singleEDpOT0_, symObjAddr: 0x61F4, symBinAddr: 0x1000079C0, symSize: 0x1E8 }
  - { offset: 0x15117E, size: 0x8, addend: 0x0, symName: __ZNSt3__125__throw_bad_function_callB8ne180100Ev, symObjAddr: 0x8818, symBinAddr: 0x100009FE4, symSize: 0x34 }
  - { offset: 0x1516FD, size: 0x8, addend: 0x0, symName: __ZNSt3__112__destroy_atB8ne180100INS_4pairIKNS_12basic_stringIcNS_11char_traitsIcEENS_9allocatorIcEEEENS_10unique_ptrI12PrototypeASTNS_14default_deleteISA_EEEEEETnNS_9enable_ifIXntsr8is_arrayIT_EE5valueEiE4typeELi0EEEvPSG_, symObjAddr: 0x9C30, symBinAddr: 0x10000B3FC, symSize: 0xAC }
  - { offset: 0x1578F0, size: 0x8, addend: 0x0, symName: __ZSt28__throw_bad_array_new_lengthB8ne180100v, symObjAddr: 0x36A4, symBinAddr: 0x100004E70, symSize: 0x28 }
  - { offset: 0x157B4D, size: 0x8, addend: 0x0, symName: __MergedGlobals, symObjAddr: 0x7DE530, symBinAddr: 0x100014018, symSize: 0x0 }
  - { offset: 0x157FF2, size: 0x8, addend: 0x0, symName: __MergedGlobals, symObjAddr: 0x7DE530, symBinAddr: 0x100014018, symSize: 0x0 }
  - { offset: 0x15D79F, size: 0x8, addend: 0x0, symName: __MergedGlobals, symObjAddr: 0x7DE530, symBinAddr: 0x100014018, symSize: 0x0 }
  - { offset: 0x15D86A, size: 0x8, addend: 0x0, symName: __MergedGlobals, symObjAddr: 0x7DE530, symBinAddr: 0x100014018, symSize: 0x0 }
  - { offset: 0x15E498, size: 0x8, addend: 0x0, symName: __MergedGlobals, symObjAddr: 0x7DE530, symBinAddr: 0x100014018, symSize: 0x0 }
  - { offset: 0x15E882, size: 0x8, addend: 0x0, symName: __MergedGlobals, symObjAddr: 0x7DE530, symBinAddr: 0x100014018, symSize: 0x0 }
  - { offset: 0x16D815, size: 0x8, addend: 0x0, symName: __MergedGlobals, symObjAddr: 0x7DE530, symBinAddr: 0x100014018, symSize: 0x0 }
  - { offset: 0x16D8E6, size: 0x8, addend: 0x0, symName: __MergedGlobals, symObjAddr: 0x7DE530, symBinAddr: 0x100014018, symSize: 0x0 }
  - { offset: 0x16D9B7, size: 0x8, addend: 0x0, symName: __MergedGlobals, symObjAddr: 0x7DE530, symBinAddr: 0x100014018, symSize: 0x0 }
  - { offset: 0x16DA88, size: 0x8, addend: 0x0, symName: __MergedGlobals, symObjAddr: 0x7DE530, symBinAddr: 0x100014018, symSize: 0x0 }
  - { offset: 0x16DB59, size: 0x8, addend: 0x0, symName: __MergedGlobals, symObjAddr: 0x7DE530, symBinAddr: 0x100014018, symSize: 0x0 }
  - { offset: 0x16DC2A, size: 0x8, addend: 0x0, symName: __MergedGlobals, symObjAddr: 0x7DE530, symBinAddr: 0x100014018, symSize: 0x0 }
  - { offset: 0x16DCFB, size: 0x8, addend: 0x0, symName: __MergedGlobals, symObjAddr: 0x7DE530, symBinAddr: 0x100014018, symSize: 0x0 }
  - { offset: 0x16EBFD, size: 0x8, addend: 0x0, symName: __MergedGlobals, symObjAddr: 0x7DE530, symBinAddr: 0x100014018, symSize: 0x0 }
  - { offset: 0x16F023, size: 0x8, addend: 0x0, symName: __MergedGlobals, symObjAddr: 0x7DE530, symBinAddr: 0x100014018, symSize: 0x0 }
  - { offset: 0x16F0DC, size: 0x8, addend: 0x0, symName: __MergedGlobals, symObjAddr: 0x7DE530, symBinAddr: 0x100014018, symSize: 0x0 }
  - { offset: 0x16F0F8, size: 0x8, addend: 0x0, symName: __MergedGlobals, symObjAddr: 0x7DE530, symBinAddr: 0x100014018, symSize: 0x0 }
  - { offset: 0x16F106, size: 0x8, addend: 0x0, symName: __ZN4llvm3orc15KaleidoscopeJITC2ENSt3__110unique_ptrINS0_16ExecutionSessionENS2_14default_deleteIS4_EEEENS0_23JITTargetMachineBuilderENS_10DataLayoutE, symObjAddr: 0x5CF0, symBinAddr: 0x1000074BC, symSize: 0x498 }
  - { offset: 0x173173, size: 0x8, addend: 0x0, symName: __Z8LogErrorPKc, symObjAddr: 0x0, symBinAddr: 0x1000017CC, symSize: 0x48 }
  - { offset: 0x17358B, size: 0x8, addend: 0x0, symName: __Z9LogErrorPPKc, symObjAddr: 0x48, symBinAddr: 0x100001814, symSize: 0x48 }
  - { offset: 0x1736F6, size: 0x8, addend: 0x0, symName: __ZNSt3__13mapIciNS_4lessIcEENS_9allocatorINS_4pairIKciEEEEED1B8ne180100Ev, symObjAddr: 0x90, symBinAddr: 0x10000185C, symSize: 0x28 }
  - { offset: 0x1737B4, size: 0x8, addend: 0x0, symName: __ZNSt3__16__treeINS_12__value_typeIciEENS_19__map_value_compareIcS2_NS_4lessIcEELb1EEENS_9allocatorIS2_EEE7destroyEPNS_11__tree_nodeIS2_PvEE, symObjAddr: 0x8B50, symBinAddr: 0x10000A31C, symSize: 0x44 }
  - { offset: 0x173979, size: 0x8, addend: 0x0, symName: __ZNSt3__110unique_ptrIN4llvm11LLVMContextENS_14default_deleteIS2_EEED1B8ne180100Ev, symObjAddr: 0xB8, symBinAddr: 0x100001884, symSize: 0x3C }
  - { offset: 0x173A90, size: 0x8, addend: 0x0, symName: __ZNSt3__110unique_ptrIN4llvm6ModuleENS_14default_deleteIS2_EEED1B8ne180100Ev, symObjAddr: 0xF4, symBinAddr: 0x1000018C0, symSize: 0x3C }
  - { offset: 0x173CCD, size: 0x8, addend: 0x0, symName: __ZNSt3__110unique_ptrIN4llvm9IRBuilderINS1_14ConstantFolderENS1_24IRBuilderDefaultInserterEEENS_14default_deleteIS5_EEED1B8ne180100Ev, symObjAddr: 0x130, symBinAddr: 0x1000018FC, symSize: 0x58 }
  - { offset: 0x173F29, size: 0x8, addend: 0x0, symName: __ZNSt3__13mapINS_12basic_stringIcNS_11char_traitsIcEENS_9allocatorIcEEEEPN4llvm5ValueENS_4lessIS6_EENS4_INS_4pairIKS6_S9_EEEEED1B8ne180100Ev, symObjAddr: 0x188, symBinAddr: 0x100001954, symSize: 0x28 }
  - { offset: 0x173FE7, size: 0x8, addend: 0x0, symName: __ZNSt3__16__treeINS_12__value_typeINS_12basic_stringIcNS_11char_traitsIcEENS_9allocatorIcEEEEPN4llvm5ValueEEENS_19__map_value_compareIS7_SB_NS_4lessIS7_EELb1EEENS5_ISB_EEE7destroyEPNS_11__tree_nodeISB_PvEE, symObjAddr: 0x8D44, symBinAddr: 0x10000A510, symSize: 0x60 }
  - { offset: 0x174328, size: 0x8, addend: 0x0, symName: __ZNSt3__110unique_ptrIN4llvm3orc15KaleidoscopeJITENS_14default_deleteIS3_EEED1B8ne180100Ev, symObjAddr: 0x1B0, symBinAddr: 0x10000197C, symSize: 0x3C }
  - { offset: 0x1743F3, size: 0x8, addend: 0x0, symName: __ZN4llvm3orc15KaleidoscopeJITD2Ev, symObjAddr: 0x8A0C, symBinAddr: 0x10000A1D8, symSize: 0x144 }
  - { offset: 0x174B4A, size: 0x8, addend: 0x0, symName: __ZNSt3__110unique_ptrIN4llvm11PassManagerINS1_8FunctionENS1_15AnalysisManagerIS3_JEEEJEEENS_14default_deleteIS6_EEED1B8ne180100Ev, symObjAddr: 0x1EC, symBinAddr: 0x1000019B8, symSize: 0x88 }
  - { offset: 0x174EB4, size: 0x8, addend: 0x0, symName: __ZNSt3__110unique_ptrIN4llvm15AnalysisManagerINS1_4LoopEJRNS1_27LoopStandardAnalysisResultsEEEENS_14default_deleteIS6_EEED1B8ne180100Ev, symObjAddr: 0x274, symBinAddr: 0x100001A40, symSize: 0x30 }
  - { offset: 0x174EE2, size: 0x8, addend: 0x0, symName: __ZNSt3__110unique_ptrIN4llvm15AnalysisManagerINS1_4LoopEJRNS1_27LoopStandardAnalysisResultsEEEENS_14default_deleteIS6_EEED1B8ne180100Ev, symObjAddr: 0x274, symBinAddr: 0x100001A40, symSize: 0x30 }
  - { offset: 0x174F01, size: 0x8, addend: 0x0, symName: __ZNSt3__110unique_ptrIN4llvm15AnalysisManagerINS1_4LoopEJRNS1_27LoopStandardAnalysisResultsEEEENS_14default_deleteIS6_EEED1B8ne180100Ev, symObjAddr: 0x274, symBinAddr: 0x100001A40, symSize: 0x30 }
  - { offset: 0x174F3E, size: 0x8, addend: 0x0, symName: __ZNKSt3__114default_deleteIN4llvm15AnalysisManagerINS1_4LoopEJRNS1_27LoopStandardAnalysisResultsEEEEEclB8ne180100EPS6_, symObjAddr: 0x8DA4, symBinAddr: 0x10000A570, symSize: 0xD0 }
  - { offset: 0x1751D9, size: 0x8, addend: 0x0, symName: __ZNSt3__110unique_ptrIN4llvm15AnalysisManagerINS1_8FunctionEJEEENS_14default_deleteIS4_EEED1B8ne180100Ev, symObjAddr: 0x2A4, symBinAddr: 0x100001A70, symSize: 0x30 }
  - { offset: 0x1751FF, size: 0x8, addend: 0x0, symName: __ZNSt3__110unique_ptrIN4llvm15AnalysisManagerINS1_8FunctionEJEEENS_14default_deleteIS4_EEED1B8ne180100Ev, symObjAddr: 0x2A4, symBinAddr: 0x100001A70, symSize: 0x30 }
  - { offset: 0x17521E, size: 0x8, addend: 0x0, symName: __ZNSt3__110unique_ptrIN4llvm15AnalysisManagerINS1_8FunctionEJEEENS_14default_deleteIS4_EEED1B8ne180100Ev, symObjAddr: 0x2A4, symBinAddr: 0x100001A70, symSize: 0x30 }
  - { offset: 0x17525B, size: 0x8, addend: 0x0, symName: __ZNKSt3__114default_deleteIN4llvm15AnalysisManagerINS1_8FunctionEJEEEEclB8ne180100EPS4_, symObjAddr: 0x8F5C, symBinAddr: 0x10000A728, symSize: 0xD0 }
  - { offset: 0x1754FA, size: 0x8, addend: 0x0, symName: __ZNSt3__110unique_ptrIN4llvm15AnalysisManagerINS1_13LazyCallGraph3SCCEJRS3_EEENS_14default_deleteIS6_EEED1B8ne180100Ev, symObjAddr: 0x2D4, symBinAddr: 0x100001AA0, symSize: 0x30 }
  - { offset: 0x175520, size: 0x8, addend: 0x0, symName: __ZNSt3__110unique_ptrIN4llvm15AnalysisManagerINS1_13LazyCallGraph3SCCEJRS3_EEENS_14default_deleteIS6_EEED1B8ne180100Ev, symObjAddr: 0x2D4, symBinAddr: 0x100001AA0, symSize: 0x30 }
  - { offset: 0x17553F, size: 0x8, addend: 0x0, symName: __ZNSt3__110unique_ptrIN4llvm15AnalysisManagerINS1_13LazyCallGraph3SCCEJRS3_EEENS_14default_deleteIS6_EEED1B8ne180100Ev, symObjAddr: 0x2D4, symBinAddr: 0x100001AA0, symSize: 0x30 }
  - { offset: 0x17557C, size: 0x8, addend: 0x0, symName: __ZNKSt3__114default_deleteIN4llvm15AnalysisManagerINS1_13LazyCallGraph3SCCEJRS3_EEEEclB8ne180100EPS6_, symObjAddr: 0x9114, symBinAddr: 0x10000A8E0, symSize: 0xD0 }
  - { offset: 0x175817, size: 0x8, addend: 0x0, symName: __ZNSt3__110unique_ptrIN4llvm15AnalysisManagerINS1_6ModuleEJEEENS_14default_deleteIS4_EEED1B8ne180100Ev, symObjAddr: 0x304, symBinAddr: 0x100001AD0, symSize: 0x30 }
  - { offset: 0x17583D, size: 0x8, addend: 0x0, symName: __ZNSt3__110unique_ptrIN4llvm15AnalysisManagerINS1_6ModuleEJEEENS_14default_deleteIS4_EEED1B8ne180100Ev, symObjAddr: 0x304, symBinAddr: 0x100001AD0, symSize: 0x30 }
  - { offset: 0x17585C, size: 0x8, addend: 0x0, symName: __ZNSt3__110unique_ptrIN4llvm15AnalysisManagerINS1_6ModuleEJEEENS_14default_deleteIS4_EEED1B8ne180100Ev, symObjAddr: 0x304, symBinAddr: 0x100001AD0, symSize: 0x30 }
  - { offset: 0x175899, size: 0x8, addend: 0x0, symName: __ZNKSt3__114default_deleteIN4llvm15AnalysisManagerINS1_6ModuleEJEEEEclB8ne180100EPS4_, symObjAddr: 0x92CC, symBinAddr: 0x10000AA98, symSize: 0xD0 }
  - { offset: 0x175B7C, size: 0x8, addend: 0x0, symName: __ZNSt3__110unique_ptrIN4llvm28PassInstrumentationCallbacksENS_14default_deleteIS2_EEED1B8ne180100Ev, symObjAddr: 0x334, symBinAddr: 0x100001B00, symSize: 0x3C }
  - { offset: 0x175C4F, size: 0x8, addend: 0x0, symName: __ZN4llvm28PassInstrumentationCallbacksD2Ev, symObjAddr: 0x9484, symBinAddr: 0x10000AC50, symSize: 0x520 }
  - { offset: 0x1776E7, size: 0x8, addend: 0x0, symName: __ZNSt3__110unique_ptrIN4llvm24StandardInstrumentationsENS_14default_deleteIS2_EEED1B8ne180100Ev, symObjAddr: 0x370, symBinAddr: 0x100001B3C, symSize: 0x3C }
  - { offset: 0x1777BA, size: 0x8, addend: 0x0, symName: __ZN4llvm24StandardInstrumentationsD2Ev, symObjAddr: 0x99A4, symBinAddr: 0x10000B170, symSize: 0xB0 }
  - { offset: 0x177C35, size: 0x8, addend: 0x0, symName: __ZNSt3__13mapINS_12basic_stringIcNS_11char_traitsIcEENS_9allocatorIcEEEENS_10unique_ptrI12PrototypeASTNS_14default_deleteIS8_EEEENS_4lessIS6_EENS4_INS_4pairIKS6_SB_EEEEED1B8ne180100Ev, symObjAddr: 0x3AC, symBinAddr: 0x100001B78, symSize: 0x28 }
  - { offset: 0x177CF3, size: 0x8, addend: 0x0, symName: __ZNSt3__16__treeINS_12__value_typeINS_12basic_stringIcNS_11char_traitsIcEENS_9allocatorIcEEEENS_10unique_ptrI12PrototypeASTNS_14default_deleteIS9_EEEEEENS_19__map_value_compareIS7_SD_NS_4lessIS7_EELb1EEENS5_ISD_EEE7destroyEPNS_11__tree_nodeISD_PvEE, symObjAddr: 0x9BE4, symBinAddr: 0x10000B3B0, symSize: 0x4C }
  - { offset: 0x177FC8, size: 0x8, addend: 0x0, symName: __ZN4llvm11ExitOnErrorD1Ev, symObjAddr: 0x3D4, symBinAddr: 0x100001BA0, symSize: 0x70 }
  - { offset: 0x1781C2, size: 0x8, addend: 0x0, symName: __Z9LogErrorVPKc, symObjAddr: 0x444, symBinAddr: 0x100001C10, symSize: 0x3C }
  - { offset: 0x178380, size: 0x8, addend: 0x0, symName: __ZN13NumberExprAST7codegenEv, symObjAddr: 0x480, symBinAddr: 0x100001C4C, symSize: 0x104 }
  - { offset: 0x178503, size: 0x8, addend: 0x0, symName: __ZNSt3__110unique_ptrIA_N4llvm7APFloatENS_14default_deleteIS3_EEE5resetB8ne180100EDn, symObjAddr: 0x36CC, symBinAddr: 0x100004E98, symSize: 0x90 }
  - { offset: 0x17860C, size: 0x8, addend: 0x0, symName: __ZN4llvm7APFloatD1Ev, symObjAddr: 0x584, symBinAddr: 0x100001D50, symSize: 0x64 }
  - { offset: 0x178755, size: 0x8, addend: 0x0, symName: __ZN15VariableExprAST7codegenEv, symObjAddr: 0x5E8, symBinAddr: 0x100001DB4, symSize: 0x88 }
  - { offset: 0x17883D, size: 0x8, addend: 0x0, symName: __ZNSt3__16__treeINS_12__value_typeINS_12basic_stringIcNS_11char_traitsIcEENS_9allocatorIcEEEEPN4llvm5ValueEEENS_19__map_value_compareIS7_SB_NS_4lessIS7_EELb1EEENS5_ISB_EEE25__emplace_unique_key_argsIS7_JRKNS_21piecewise_construct_tENS_5tupleIJRKS7_EEENSM_IJEEEEEENS_4pairINS_15__tree_iteratorISB_PNS_11__tree_nodeISB_PvEElEEbEERKT_DpOT0_, symObjAddr: 0x9CDC, symBinAddr: 0x10000B4A8, symSize: 0x1B4 }
  - { offset: 0x17905F, size: 0x8, addend: 0x0, symName: __ZN13BinaryExprAST7codegenEv, symObjAddr: 0x670, symBinAddr: 0x100001E3C, symSize: 0x1C8 }
  - { offset: 0x1793F4, size: 0x8, addend: 0x0, symName: __ZN4llvm13IRBuilderBase10CreateFAddEPNS_5ValueES2_RKNS_5TwineEPNS_6MDNodeE, symObjAddr: 0x838, symBinAddr: 0x100002004, symSize: 0x158 }
  - { offset: 0x179656, size: 0x8, addend: 0x0, symName: __ZN4llvm13IRBuilderBase10CreateFMulEPNS_5ValueES2_RKNS_5TwineEPNS_6MDNodeE, symObjAddr: 0xAE8, symBinAddr: 0x1000022B4, symSize: 0x158 }
  - { offset: 0x1798B8, size: 0x8, addend: 0x0, symName: __ZN4llvm13IRBuilderBase10CreateFSubEPNS_5ValueES2_RKNS_5TwineEPNS_6MDNodeE, symObjAddr: 0x990, symBinAddr: 0x10000215C, symSize: 0x158 }
  - { offset: 0x17A48F, size: 0x8, addend: 0x0, symName: __ZN11CallExprAST7codegenEv, symObjAddr: 0xC40, symBinAddr: 0x10000240C, symSize: 0x38C }
  - { offset: 0x17B0AB, size: 0x8, addend: 0x0, symName: __ZN4llvm13IRBuilderBase10CreateCallEPNS_12FunctionTypeEPNS_5ValueENS_8ArrayRefIS4_EERKNS_5TwineEPNS_6MDNodeE, symObjAddr: 0x375C, symBinAddr: 0x100004F28, symSize: 0x11C }
  - { offset: 0x17B3E5, size: 0x8, addend: 0x0, symName: __ZNKSt3__16vectorIPN4llvm5ValueENS_9allocatorIS3_EEE20__throw_length_errorB8ne180100Ev, symObjAddr: 0x9EEC, symBinAddr: 0x10000B6B8, symSize: 0x14 }
  - { offset: 0x17B40F, size: 0x8, addend: 0x0, symName: __ZNKSt3__16vectorIPN4llvm4TypeENS_9allocatorIS3_EEE20__throw_length_errorB8ne180100Ev, symObjAddr: 0x9F00, symBinAddr: 0x10000B6CC, symSize: 0x14 }
  - { offset: 0x17B909, size: 0x8, addend: 0x0, symName: __ZN12PrototypeAST7codegenEv, symObjAddr: 0xFCC, symBinAddr: 0x100002798, symSize: 0x248 }
  - { offset: 0x17C0E9, size: 0x8, addend: 0x0, symName: __ZNKSt3__16vectorIPN4llvm4TypeENS_9allocatorIS3_EEE20__throw_length_errorB8ne180100Ev, symObjAddr: 0x9F00, symBinAddr: 0x10000B6CC, symSize: 0x14 }
  - { offset: 0x17C113, size: 0x8, addend: 0x0, symName: __ZNSt3__16__treeINS_12__value_typeINS_12basic_stringIcNS_11char_traitsIcEENS_9allocatorIcEEEEPN4llvm5ValueEEENS_19__map_value_compareIS7_SB_NS_4lessIS7_EELb1EEENS5_ISB_EEE25__emplace_unique_key_argsIS7_JRKNS_21piecewise_construct_tENS_5tupleIJOS7_EEENSM_IJEEEEEENS_4pairINS_15__tree_iteratorISB_PNS_11__tree_nodeISB_PvEElEEbEERKT_DpOT0_, symObjAddr: 0x9F14, symBinAddr: 0x10000B6E0, symSize: 0x178 }
  - { offset: 0x17C691, size: 0x8, addend: 0x0, symName: __ZN11FunctionAST7codegenEv, symObjAddr: 0x1214, symBinAddr: 0x1000029E0, symSize: 0x318 }
  - { offset: 0x17D364, size: 0x8, addend: 0x0, symName: __ZNSt3__16__treeINS_12__value_typeINS_12basic_stringIcNS_11char_traitsIcEENS_9allocatorIcEEEEPN4llvm5ValueEEENS_19__map_value_compareIS7_SB_NS_4lessIS7_EELb1EEENS5_ISB_EEE25__emplace_unique_key_argsIS7_JRKNS_21piecewise_construct_tENS_5tupleIJOS7_EEENSM_IJEEEEEENS_4pairINS_15__tree_iteratorISB_PNS_11__tree_nodeISB_PvEElEEbEERKT_DpOT0_, symObjAddr: 0x9F14, symBinAddr: 0x10000B6E0, symSize: 0x178 }
  - { offset: 0x17D997, size: 0x8, addend: 0x0, symName: __ZN4llvm13IRBuilderBase9CreateRetEPNS_5ValueE, symObjAddr: 0x152C, symBinAddr: 0x100002CF8, symSize: 0xC0 }
  - { offset: 0x17DB6A, size: 0x8, addend: 0x0, symName: __ZNKSt3__112basic_stringIcNS_11char_traitsIcEENS_9allocatorIcEEE20__throw_length_errorB8ne180100Ev, symObjAddr: 0x5508, symBinAddr: 0x100006CD4, symSize: 0x14 }
  - { offset: 0x17DB94, size: 0x8, addend: 0x0, symName: __ZNSt3__120__throw_length_errorB8ne180100EPKc, symObjAddr: 0x551C, symBinAddr: 0x100006CE8, symSize: 0x50 }
  - { offset: 0x17FA59, size: 0x8, addend: 0x0, symName: __Z27InitializeModuleAndManagersv, symObjAddr: 0x15EC, symBinAddr: 0x100002DB8, symSize: 0x758 }
  - { offset: 0x182A77, size: 0x8, addend: 0x0, symName: __ZN4llvm11PassManagerINS_8FunctionENS_15AnalysisManagerIS1_JEEEJEE7addPassINS_15InstCombinePassEEENSt3__19enable_ifIXntsr3std7is_sameIT_S4_EE5valueEvE4typeEOS9_, symObjAddr: 0x1D44, symBinAddr: 0x100003510, symSize: 0x100 }
  - { offset: 0x182D40, size: 0x8, addend: 0x0, symName: __ZN4llvm11PassManagerINS_8FunctionENS_15AnalysisManagerIS1_JEEEJEE7addPassINS_15ReassociatePassEEENSt3__19enable_ifIXntsr3std7is_sameIT_S4_EE5valueEvE4typeEOS9_, symObjAddr: 0x1EBC, symBinAddr: 0x100003688, symSize: 0xD4 }
  - { offset: 0x18306E, size: 0x8, addend: 0x0, symName: __ZN4llvm15ReassociatePassD2Ev, symObjAddr: 0x3F4C, symBinAddr: 0x100005718, symSize: 0x2B4 }
  - { offset: 0x183549, size: 0x8, addend: 0x0, symName: __ZN4llvm11PassManagerINS_8FunctionENS_15AnalysisManagerIS1_JEEEJEE7addPassINS_7GVNPassEEENSt3__19enable_ifIXntsr3std7is_sameIT_S4_EE5valueEvE4typeEOS9_, symObjAddr: 0x1F90, symBinAddr: 0x10000375C, symSize: 0x100 }
  - { offset: 0x18385D, size: 0x8, addend: 0x0, symName: __ZN4llvm7GVNPassD2Ev, symObjAddr: 0x44C0, symBinAddr: 0x100005C8C, symSize: 0x114 }
  - { offset: 0x183EE2, size: 0x8, addend: 0x0, symName: __ZNSt3__16vectorINS_10unique_ptrIN4llvm6detail11PassConceptINS2_8FunctionENS2_15AnalysisManagerIS5_JEEEJEEENS_14default_deleteIS8_EEEENS_9allocatorISB_EEE21__push_back_slow_pathISB_EEPSB_OT_, symObjAddr: 0xA148, symBinAddr: 0x10000B914, symSize: 0x1C4 }
  - { offset: 0x18454E, size: 0x8, addend: 0x0, symName: __ZNKSt3__16vectorINS_10unique_ptrIN4llvm6detail11PassConceptINS2_8FunctionENS2_15AnalysisManagerIS5_JEEEJEEENS_14default_deleteIS8_EEEENS_9allocatorISB_EEE20__throw_length_errorB8ne180100Ev, symObjAddr: 0xA30C, symBinAddr: 0x10000BAD8, symSize: 0x14 }
  - { offset: 0x184562, size: 0x8, addend: 0x0, symName: __ZN4llvm11PassBuilderD2Ev, symObjAddr: 0x45D4, symBinAddr: 0x100005DA0, symSize: 0x9F8 }
  - { offset: 0x1869F6, size: 0x8, addend: 0x0, symName: __ZN4llvm9SetVectorIPNS_10BasicBlockENS_11SmallVectorIS2_Lj0EEENS_8DenseSetIS2_NS_12DenseMapInfoIS2_vEEEELj0EED1Ev, symObjAddr: 0x42F0, symBinAddr: 0x100005ABC, symSize: 0x4C }
  - { offset: 0x186BB4, size: 0x8, addend: 0x0, symName: __ZN4llvm15InstCombinePassD1Ev, symObjAddr: 0x1E44, symBinAddr: 0x100003610, symSize: 0x78 }
  - { offset: 0x186EE7, size: 0x8, addend: 0x0, symName: __ZN4llvm15InstCombinePassC1EOS0_, symObjAddr: 0xA0E0, symBinAddr: 0x10000B8AC, symSize: 0x28 }
  - { offset: 0x186FA3, size: 0x8, addend: 0x0, symName: __ZN4llvm6detail9PassModelINS_8FunctionENS_15InstCombinePassENS_17PreservedAnalysesENS_15AnalysisManagerIS2_JEEEJEEC1ES3_, symObjAddr: 0xA108, symBinAddr: 0x10000B8D4, symSize: 0x40 }
  - { offset: 0x187078, size: 0x8, addend: 0x0, symName: __ZNSt3__16vectorINS_10unique_ptrIN4llvm6detail11PassConceptINS2_8FunctionENS2_15AnalysisManagerIS5_JEEEJEEENS_14default_deleteIS8_EEEENS_9allocatorISB_EEE9push_backB8ne180100EOSB_, symObjAddr: 0xA08C, symBinAddr: 0x10000B858, symSize: 0x54 }
  - { offset: 0x187248, size: 0x8, addend: 0x0, symName: __ZN4llvm15ReassociatePassC2EOS0_, symObjAddr: 0xA8B8, symBinAddr: 0x10000C084, symSize: 0x164 }
  - { offset: 0x187B51, size: 0x8, addend: 0x0, symName: __ZN4llvm6detail9PassModelINS_8FunctionENS_15ReassociatePassENS_17PreservedAnalysesENS_15AnalysisManagerIS2_JEEEJEEC1ES3_, symObjAddr: 0xA884, symBinAddr: 0x10000C050, symSize: 0x34 }
  - { offset: 0x187C12, size: 0x8, addend: 0x0, symName: __ZN4llvm7GVNPassC2EOS0_, symObjAddr: 0xACA0, symBinAddr: 0x10000C46C, symSize: 0x2E0 }
  - { offset: 0x1888ED, size: 0x8, addend: 0x0, symName: __ZN4llvm6detail9PassModelINS_8FunctionENS_7GVNPassENS_17PreservedAnalysesENS_15AnalysisManagerIS2_JEEEJEEC1ES3_, symObjAddr: 0xAC6C, symBinAddr: 0x10000C438, symSize: 0x34 }
  - { offset: 0x18A037, size: 0x8, addend: 0x0, symName: _main, symObjAddr: 0x2090, symBinAddr: 0x10000385C, symSize: 0xBA0 }
  - { offset: 0x18DB19, size: 0x8, addend: 0x0, symName: __ZL12getNextTokenv, symObjAddr: 0x2C30, symBinAddr: 0x1000043FC, symSize: 0x2D4 }
  - { offset: 0x18E2CB, size: 0x8, addend: 0x0, symName: __ZN4llvm3orc15KaleidoscopeJIT6CreateEv, symObjAddr: 0x2F04, symBinAddr: 0x1000046D0, symSize: 0x3B4 }
  - { offset: 0x18F638, size: 0x8, addend: 0x0, symName: __ZNK4llvm11ExitOnError10checkErrorENS_5ErrorE, symObjAddr: 0x875C, symBinAddr: 0x100009F28, symSize: 0xBC }
  - { offset: 0x18F98A, size: 0x8, addend: 0x0, symName: __ZL14ParsePrototypev, symObjAddr: 0x6F68, symBinAddr: 0x100008734, symSize: 0x2AC }
  - { offset: 0x19067A, size: 0x8, addend: 0x0, symName: __ZL15ParseExpressionv, symObjAddr: 0x7214, symBinAddr: 0x1000089E0, symSize: 0x198 }
  - { offset: 0x190CE9, size: 0x8, addend: 0x0, symName: __ZN4llvm3orc17ThreadSafeContextC2ENSt3__110unique_ptrINS_11LLVMContextENS2_14default_deleteIS4_EEEE, symObjAddr: 0x85A8, symBinAddr: 0x100009D74, symSize: 0xDC }
  - { offset: 0x1911CE, size: 0x8, addend: 0x0, symName: __ZN4llvm3orc15KaleidoscopeJIT9addModuleENS0_16ThreadSafeModuleENS_18IntrusiveRefCntPtrINS0_15ResourceTrackerEEE, symObjAddr: 0x806C, symBinAddr: 0x100009838, symSize: 0x16C }
  - { offset: 0x191805, size: 0x8, addend: 0x0, symName: __ZN4llvm3orc16ThreadSafeModuleD2Ev, symObjAddr: 0x8864, symBinAddr: 0x10000A030, symSize: 0x144 }
  - { offset: 0x191D90, size: 0x8, addend: 0x0, symName: __ZN4llvm3orc15KaleidoscopeJIT6lookupENS_9StringRefE, symObjAddr: 0x8250, symBinAddr: 0x100009A1C, symSize: 0x1DC }
  - { offset: 0x19275C, size: 0x8, addend: 0x0, symName: __ZNKSt3__114default_deleteI11FunctionASTEclB8ne180100EPS1_, symObjAddr: 0x7FB8, symBinAddr: 0x100009784, symSize: 0xB4 }
  - { offset: 0x192CCC, size: 0x8, addend: 0x0, symName: __ZNSt3__110unique_ptrI12PrototypeASTNS_14default_deleteIS1_EEED1B8ne180100Ev, symObjAddr: 0x73AC, symBinAddr: 0x100008B78, symSize: 0x94 }
  - { offset: 0x19316F, size: 0x8, addend: 0x0, symName: __ZN4llvm18IntrusiveRefCntPtrINS_3orc15ResourceTrackerEED1Ev, symObjAddr: 0x81D8, symBinAddr: 0x1000099A4, symSize: 0x78 }
  - { offset: 0x19326B, size: 0x8, addend: 0x0, symName: __ZNSt3__16vectorINS_12basic_stringIcNS_11char_traitsIcEENS_9allocatorIcEEEENS4_IS6_EEED1B8ne180100Ev, symObjAddr: 0x6EF8, symBinAddr: 0x1000086C4, symSize: 0x70 }
  - { offset: 0x19350E, size: 0x8, addend: 0x0, symName: __ZN4llvm8ExpectedINSt3__110unique_ptrINS_3orc15KaleidoscopeJITENS1_14default_deleteIS4_EEEEED1Ev, symObjAddr: 0x32B8, symBinAddr: 0x100004A84, symSize: 0x5C }
  - { offset: 0x19454F, size: 0x8, addend: 0x0, symName: __ZNSt3__112basic_stringIcNS_11char_traitsIcEENS_9allocatorIcEEE25__init_copy_ctor_externalEPKcm, symObjAddr: 0x5474, symBinAddr: 0x100006C40, symSize: 0x94 }
  - { offset: 0x194852, size: 0x8, addend: 0x0, symName: __ZNKSt3__112basic_stringIcNS_11char_traitsIcEENS_9allocatorIcEEE20__throw_length_errorB8ne180100Ev, symObjAddr: 0x5508, symBinAddr: 0x100006CD4, symSize: 0x14 }
  - { offset: 0x194865, size: 0x8, addend: 0x0, symName: __ZN4llvm3orc23JITTargetMachineBuilder29getDefaultDataLayoutForTargetEv, symObjAddr: 0x5028, symBinAddr: 0x1000067F4, symSize: 0x140 }
  - { offset: 0x194BE4, size: 0x8, addend: 0x0, symName: __ZN4llvm3orc23JITTargetMachineBuilderD2Ev, symObjAddr: 0x6CFC, symBinAddr: 0x1000084C8, symSize: 0x120 }
  - { offset: 0x1954E0, size: 0x8, addend: 0x0, symName: __ZNSt3__110shared_ptrIN4llvm3orc16SymbolStringPoolEED1B8ne180100Ev, symObjAddr: 0x4FCC, symBinAddr: 0x100006798, symSize: 0x5C }
  - { offset: 0x19557F, size: 0x8, addend: 0x0, symName: __ZN4llvm8ExpectedINS_10DataLayoutEED1Ev, symObjAddr: 0x53E0, symBinAddr: 0x100006BAC, symSize: 0x58 }
  - { offset: 0x19565A, size: 0x8, addend: 0x0, symName: __ZNSt3__110unique_ptrIN4llvm3orc16ExecutionSessionENS_14default_deleteIS3_EEED1B8ne180100Ev, symObjAddr: 0x5438, symBinAddr: 0x100006C04, symSize: 0x3C }
  - { offset: 0x1956F9, size: 0x8, addend: 0x0, symName: __ZN13NumberExprASTD1Ev, symObjAddr: 0x3314, symBinAddr: 0x100004AE0, symSize: 0x4 }
  - { offset: 0x195724, size: 0x8, addend: 0x0, symName: __ZN13NumberExprASTD0Ev, symObjAddr: 0x3318, symBinAddr: 0x100004AE4, symSize: 0x4 }
  - { offset: 0x195761, size: 0x8, addend: 0x0, symName: __ZN15VariableExprASTD1Ev, symObjAddr: 0x331C, symBinAddr: 0x100004AE8, symSize: 0x44 }
  - { offset: 0x1958EC, size: 0x8, addend: 0x0, symName: __ZN15VariableExprASTD0Ev, symObjAddr: 0x3360, symBinAddr: 0x100004B2C, symSize: 0x44 }
  - { offset: 0x195A99, size: 0x8, addend: 0x0, symName: __ZN13BinaryExprASTD1Ev, symObjAddr: 0x33A4, symBinAddr: 0x100004B70, symSize: 0x5C }
  - { offset: 0x195C3A, size: 0x8, addend: 0x0, symName: __ZN13BinaryExprASTD0Ev, symObjAddr: 0x3400, symBinAddr: 0x100004BCC, symSize: 0x5C }
  - { offset: 0x195F4B, size: 0x8, addend: 0x0, symName: __ZN11CallExprASTD1Ev, symObjAddr: 0x345C, symBinAddr: 0x100004C28, symSize: 0xA4 }
  - { offset: 0x196309, size: 0x8, addend: 0x0, symName: __ZN11CallExprASTD0Ev, symObjAddr: 0x3500, symBinAddr: 0x100004CCC, symSize: 0xA4 }
  - { offset: 0x1966CD, size: 0x8, addend: 0x0, symName: __ZNSt3__110__function6__funcIZN4llvm11ExitOnErrorC1ENS_12basic_stringIcNS_11char_traitsIcEENS_9allocatorIcEEEEiEUlRKNS2_5ErrorEE_NS7_ISD_EEFiSC_EED1Ev, symObjAddr: 0x35B4, symBinAddr: 0x100004D80, symSize: 0x4 }
  - { offset: 0x1966F8, size: 0x8, addend: 0x0, symName: __ZNSt3__110__function6__funcIZN4llvm11ExitOnErrorC1ENS_12basic_stringIcNS_11char_traitsIcEENS_9allocatorIcEEEEiEUlRKNS2_5ErrorEE_NS7_ISD_EEFiSC_EED0Ev, symObjAddr: 0x35B8, symBinAddr: 0x100004D84, symSize: 0x4 }
  - { offset: 0x196937, size: 0x8, addend: 0x0, symName: __ZNKSt3__110__function6__funcIZN4llvm11ExitOnErrorC1ENS_12basic_stringIcNS_11char_traitsIcEENS_9allocatorIcEEEEiEUlRKNS2_5ErrorEE_NS7_ISD_EEFiSC_EE7__cloneEv, symObjAddr: 0x35BC, symBinAddr: 0x100004D88, symSize: 0x3C }
  - { offset: 0x196C82, size: 0x8, addend: 0x0, symName: __ZNKSt3__110__function6__funcIZN4llvm11ExitOnErrorC1ENS_12basic_stringIcNS_11char_traitsIcEENS_9allocatorIcEEEEiEUlRKNS2_5ErrorEE_NS7_ISD_EEFiSC_EE7__cloneEPNS0_6__baseISF_EE, symObjAddr: 0x35F8, symBinAddr: 0x100004DC4, symSize: 0x1C }
  - { offset: 0x196CB9, size: 0x8, addend: 0x0, symName: __ZNKSt3__110__function6__funcIZN4llvm11ExitOnErrorC1ENS_12basic_stringIcNS_11char_traitsIcEENS_9allocatorIcEEEEiEUlRKNS2_5ErrorEE_NS7_ISD_EEFiSC_EE7__cloneEPNS0_6__baseISF_EE, symObjAddr: 0x35F8, symBinAddr: 0x100004DC4, symSize: 0x1C }
  - { offset: 0x196CEB, size: 0x8, addend: 0x0, symName: __ZNKSt3__110__function6__funcIZN4llvm11ExitOnErrorC1ENS_12basic_stringIcNS_11char_traitsIcEENS_9allocatorIcEEEEiEUlRKNS2_5ErrorEE_NS7_ISD_EEFiSC_EE7__cloneEPNS0_6__baseISF_EE, symObjAddr: 0x35F8, symBinAddr: 0x100004DC4, symSize: 0x1C }
  - { offset: 0x196E17, size: 0x8, addend: 0x0, symName: __ZNSt3__110__function6__funcIZN4llvm11ExitOnErrorC1ENS_12basic_stringIcNS_11char_traitsIcEENS_9allocatorIcEEEEiEUlRKNS2_5ErrorEE_NS7_ISD_EEFiSC_EE7destroyEv, symObjAddr: 0x3614, symBinAddr: 0x100004DE0, symSize: 0x4 }
  - { offset: 0x196E6A, size: 0x8, addend: 0x0, symName: __ZNSt3__110__function6__funcIZN4llvm11ExitOnErrorC1ENS_12basic_stringIcNS_11char_traitsIcEENS_9allocatorIcEEEEiEUlRKNS2_5ErrorEE_NS7_ISD_EEFiSC_EE18destroy_deallocateEv, symObjAddr: 0x3618, symBinAddr: 0x100004DE4, symSize: 0x4 }
  - { offset: 0x196E9F, size: 0x8, addend: 0x0, symName: __ZNSt3__110__function6__funcIZN4llvm11ExitOnErrorC1ENS_12basic_stringIcNS_11char_traitsIcEENS_9allocatorIcEEEEiEUlRKNS2_5ErrorEE_NS7_ISD_EEFiSC_EE18destroy_deallocateEv, symObjAddr: 0x3618, symBinAddr: 0x100004DE4, symSize: 0x4 }
  - { offset: 0x196EC4, size: 0x8, addend: 0x0, symName: __ZNSt3__110__function6__funcIZN4llvm11ExitOnErrorC1ENS_12basic_stringIcNS_11char_traitsIcEENS_9allocatorIcEEEEiEUlRKNS2_5ErrorEE_NS7_ISD_EEFiSC_EE18destroy_deallocateEv, symObjAddr: 0x3618, symBinAddr: 0x100004DE4, symSize: 0x4 }
  - { offset: 0x196EF3, size: 0x8, addend: 0x0, symName: __ZNSt3__110__function6__funcIZN4llvm11ExitOnErrorC1ENS_12basic_stringIcNS_11char_traitsIcEENS_9allocatorIcEEEEiEUlRKNS2_5ErrorEE_NS7_ISD_EEFiSC_EE18destroy_deallocateEv, symObjAddr: 0x3618, symBinAddr: 0x100004DE4, symSize: 0x4 }
  - { offset: 0x196F1D, size: 0x8, addend: 0x0, symName: __ZNSt3__110__function6__funcIZN4llvm11ExitOnErrorC1ENS_12basic_stringIcNS_11char_traitsIcEENS_9allocatorIcEEEEiEUlRKNS2_5ErrorEE_NS7_ISD_EEFiSC_EE18destroy_deallocateEv, symObjAddr: 0x3618, symBinAddr: 0x100004DE4, symSize: 0x4 }
  - { offset: 0x196FC8, size: 0x8, addend: 0x0, symName: __ZNSt3__110__function6__funcIZN4llvm11ExitOnErrorC1ENS_12basic_stringIcNS_11char_traitsIcEENS_9allocatorIcEEEEiEUlRKNS2_5ErrorEE_NS7_ISD_EEFiSC_EEclESC_, symObjAddr: 0x361C, symBinAddr: 0x100004DE8, symSize: 0x8 }
  - { offset: 0x197001, size: 0x8, addend: 0x0, symName: __ZNSt3__110__function6__funcIZN4llvm11ExitOnErrorC1ENS_12basic_stringIcNS_11char_traitsIcEENS_9allocatorIcEEEEiEUlRKNS2_5ErrorEE_NS7_ISD_EEFiSC_EEclESC_, symObjAddr: 0x361C, symBinAddr: 0x100004DE8, symSize: 0x8 }
  - { offset: 0x197021, size: 0x8, addend: 0x0, symName: __ZNSt3__110__function6__funcIZN4llvm11ExitOnErrorC1ENS_12basic_stringIcNS_11char_traitsIcEENS_9allocatorIcEEEEiEUlRKNS2_5ErrorEE_NS7_ISD_EEFiSC_EEclESC_, symObjAddr: 0x361C, symBinAddr: 0x100004DE8, symSize: 0x8 }
  - { offset: 0x197040, size: 0x8, addend: 0x0, symName: __ZNSt3__110__function6__funcIZN4llvm11ExitOnErrorC1ENS_12basic_stringIcNS_11char_traitsIcEENS_9allocatorIcEEEEiEUlRKNS2_5ErrorEE_NS7_ISD_EEFiSC_EEclESC_, symObjAddr: 0x361C, symBinAddr: 0x100004DE8, symSize: 0x8 }
  - { offset: 0x197061, size: 0x8, addend: 0x0, symName: __ZNSt3__110__function6__funcIZN4llvm11ExitOnErrorC1ENS_12basic_stringIcNS_11char_traitsIcEENS_9allocatorIcEEEEiEUlRKNS2_5ErrorEE_NS7_ISD_EEFiSC_EEclESC_, symObjAddr: 0x361C, symBinAddr: 0x100004DE8, symSize: 0x8 }
  - { offset: 0x1970E0, size: 0x8, addend: 0x0, symName: __ZNKSt3__110__function6__funcIZN4llvm11ExitOnErrorC1ENS_12basic_stringIcNS_11char_traitsIcEENS_9allocatorIcEEEEiEUlRKNS2_5ErrorEE_NS7_ISD_EEFiSC_EE6targetERKSt9type_info, symObjAddr: 0x3624, symBinAddr: 0x100004DF0, symSize: 0x74 }
  - { offset: 0x1971AF, size: 0x8, addend: 0x0, symName: __ZNKSt3__110__function6__funcIZN4llvm11ExitOnErrorC1ENS_12basic_stringIcNS_11char_traitsIcEENS_9allocatorIcEEEEiEUlRKNS2_5ErrorEE_NS7_ISD_EEFiSC_EE11target_typeEv, symObjAddr: 0x3698, symBinAddr: 0x100004E64, symSize: 0xC }
  - { offset: 0x197321, size: 0x8, addend: 0x0, symName: __ZN4llvm8CallInst6CreateEPNS_12FunctionTypeEPNS_5ValueENS_8ArrayRefIS4_EENS5_INS_17OperandBundleDefTIS4_EEEERKNS_5TwineEPNS_11InstructionE, symObjAddr: 0x3878, symBinAddr: 0x100005044, symSize: 0x398 }
  - { offset: 0x197723, size: 0x8, addend: 0x0, symName: __ZN4llvm13isa_impl_wrapINS_14FPMathOperatorEPKNS_8CallInstES4_E4doitERKS4_, symObjAddr: 0x3C10, symBinAddr: 0x1000053DC, symSize: 0x144 }
  - { offset: 0x197AA2, size: 0x8, addend: 0x0, symName: __ZN4llvm8DenseMapIPNS_11InstructionEjNS_12DenseMapInfoIS2_vEENS_6detail12DenseMapPairIS2_jEEED1Ev, symObjAddr: 0x3D54, symBinAddr: 0x100005520, symSize: 0x38 }
  - { offset: 0x197F50, size: 0x8, addend: 0x0, symName: __ZN4llvm8DenseMapIPNS_11InstructionEjNS_12DenseMapInfoIS2_vEENS_6detail12DenseMapPairIS2_jEEED1Ev, symObjAddr: 0x3D54, symBinAddr: 0x100005520, symSize: 0x38 }
  - { offset: 0x197FA1, size: 0x8, addend: 0x0, symName: __ZN4llvm8DenseSetIPNS_11InstructionENS_12DenseMapInfoIS2_vEEED1Ev, symObjAddr: 0x3D8C, symBinAddr: 0x100005558, symSize: 0x38 }
  - { offset: 0x198190, size: 0x8, addend: 0x0, symName: __ZN4llvm12DenseMapBaseINS_8DenseMapINSt3__14pairIPNS_5ValueES5_EENS_15ReassociatePass12PairMapValueENS_12DenseMapInfoIS6_vEENS_6detail12DenseMapPairIS6_S8_EEEES6_S8_SA_SD_E10destroyAllEv, symObjAddr: 0x3DC4, symBinAddr: 0x100005590, symSize: 0xC0 }
  - { offset: 0x19862E, size: 0x8, addend: 0x0, symName: __ZNSt3__15dequeIN4llvm11AssertingVHINS1_11InstructionEEENS_9allocatorIS4_EEED2B8ne180100Ev, symObjAddr: 0x3E84, symBinAddr: 0x100005650, symSize: 0xC8 }
  - { offset: 0x198C49, size: 0x8, addend: 0x0, symName: __ZN4llvm8DenseMapINS_11AssertingVHINS_10BasicBlockEEEjNS_12DenseMapInfoIS3_vEENS_6detail12DenseMapPairIS3_jEEED1Ev, symObjAddr: 0x4200, symBinAddr: 0x1000059CC, symSize: 0x38 }
  - { offset: 0x198DD8, size: 0x8, addend: 0x0, symName: __ZN4llvm14SmallMapVectorIPNS_5ValueES2_Lj4EED1Ev, symObjAddr: 0x4238, symBinAddr: 0x100005A04, symSize: 0x80 }
  - { offset: 0x198FE7, size: 0x8, addend: 0x0, symName: __ZN4llvm8DenseMapIjNS_7GVNPass16LeaderTableEntryENS_12DenseMapInfoIjvEENS_6detail12DenseMapPairIjS2_EEED1Ev, symObjAddr: 0x42B8, symBinAddr: 0x100005A84, symSize: 0x38 }
  - { offset: 0x199180, size: 0x8, addend: 0x0, symName: __ZN4llvm8DenseSetIPNS_10BasicBlockENS_12DenseMapInfoIS2_vEEED1Ev, symObjAddr: 0x433C, symBinAddr: 0x100005B08, symSize: 0x38 }
  - { offset: 0x19921B, size: 0x8, addend: 0x0, symName: __ZN4llvm13SmallDenseMapIPNS_5ValueEjLj4ENS_12DenseMapInfoIS2_vEENS_6detail12DenseMapPairIS2_jEEED1Ev, symObjAddr: 0x4374, symBinAddr: 0x100005B40, symSize: 0x70 }
  - { offset: 0x1994E7, size: 0x8, addend: 0x0, symName: __ZN4llvm20BumpPtrAllocatorImplINS_15MallocAllocatorELm4096ELm4096ELm128EED2Ev, symObjAddr: 0x43E4, symBinAddr: 0x100005BB0, symSize: 0xDC }
  - { offset: 0x19B0FE, size: 0x8, addend: 0x0, symName: __ZN4llvm10DataLayoutC2ERKS0_, symObjAddr: 0x5590, symBinAddr: 0x100006D5C, symSize: 0x270 }
  - { offset: 0x19C326, size: 0x8, addend: 0x0, symName: __ZNSt12length_errorC1B8ne180100EPKc, symObjAddr: 0x556C, symBinAddr: 0x100006D38, symSize: 0x24 }
  - { offset: 0x19CBC3, size: 0x8, addend: 0x0, symName: __ZN4llvm15SmallVectorImplIhEaSERKS1_, symObjAddr: 0x5800, symBinAddr: 0x100006FCC, symSize: 0x134 }
  - { offset: 0x19D1F8, size: 0x8, addend: 0x0, symName: __ZN4llvm15SmallVectorImplINS_15LayoutAlignElemEEaSERKS2_, symObjAddr: 0x5934, symBinAddr: 0x100007100, symSize: 0x144 }
  - { offset: 0x19D20B, size: 0x8, addend: 0x0, symName: __ZN4llvm15SmallVectorImplINS_15LayoutAlignElemEEaSERKS2_, symObjAddr: 0x5934, symBinAddr: 0x100007100, symSize: 0x144 }
  - { offset: 0x19D7E2, size: 0x8, addend: 0x0, symName: __ZN4llvm15SmallVectorImplINS_16PointerAlignElemEEaSERKS2_, symObjAddr: 0x5A78, symBinAddr: 0x100007244, symSize: 0x13C }
  - { offset: 0x19D7F5, size: 0x8, addend: 0x0, symName: __ZN4llvm15SmallVectorImplINS_16PointerAlignElemEEaSERKS2_, symObjAddr: 0x5A78, symBinAddr: 0x100007244, symSize: 0x13C }
  - { offset: 0x19DDCE, size: 0x8, addend: 0x0, symName: __ZN4llvm15SmallVectorImplIjEaSERKS1_, symObjAddr: 0x5BB4, symBinAddr: 0x100007380, symSize: 0x13C }
  - { offset: 0x19DDE1, size: 0x8, addend: 0x0, symName: __ZN4llvm15SmallVectorImplIjEaSERKS1_, symObjAddr: 0x5BB4, symBinAddr: 0x100007380, symSize: 0x13C }
  - { offset: 0x19E3BA, size: 0x8, addend: 0x0, symName: __ZN4llvm3orc15KaleidoscopeJITC2ENSt3__110unique_ptrINS0_16ExecutionSessionENS2_14default_deleteIS4_EEEENS0_23JITTargetMachineBuilderENS_10DataLayoutE, symObjAddr: 0x5CF0, symBinAddr: 0x1000074BC, symSize: 0x498 }
  - { offset: 0x19F56E, size: 0x8, addend: 0x0, symName: __ZN4llvm3orc29DynamicLibrarySearchGenerator20GetForCurrentProcessEcNSt3__18functionIFbRKNS0_15SymbolStringPtrEEEENS_15unique_functionIFNS_5ErrorERNS0_8JITDylibENS_8DenseMapIS4_NS0_17ExecutorSymbolDefENS_12DenseMapInfoIS4_vEENS_6detail12DenseMapPairIS4_SE_EEEEEEE, symObjAddr: 0x64DC, symBinAddr: 0x100007CA8, symSize: 0x1D8 }
  - { offset: 0x19FA69, size: 0x8, addend: 0x0, symName: __ZZN4llvm3orc8JITDylib12addGeneratorINS0_29DynamicLibrarySearchGeneratorEEERT_NSt3__110unique_ptrIS4_NS6_14default_deleteIS4_EEEEENKUlvE_clEv, symObjAddr: 0x67E8, symBinAddr: 0x100007FB4, symSize: 0x11C }
  - { offset: 0x19FD57, size: 0x8, addend: 0x0, symName: __ZN4llvm15unique_functionIFNS_5ErrorERNS_3orc8JITDylibENS_8DenseMapINS2_15SymbolStringPtrENS2_17ExecutorSymbolDefENS_12DenseMapInfoIS6_vEENS_6detail12DenseMapPairIS6_S7_EEEEEED1Ev, symObjAddr: 0x66B4, symBinAddr: 0x100007E80, symSize: 0x6C }
  - { offset: 0x19FF2A, size: 0x8, addend: 0x0, symName: __ZN4llvm3orc14IRCompileLayerD1Ev, symObjAddr: 0x6720, symBinAddr: 0x100007EEC, symSize: 0x80 }
  - { offset: 0x1A00A1, size: 0x8, addend: 0x0, symName: __ZN4llvm15unique_functionIFNSt3__110unique_ptrINS_11RuntimeDyld13MemoryManagerENS1_14default_deleteIS4_EEEEvEED1Ev, symObjAddr: 0x6188, symBinAddr: 0x100007954, symSize: 0x6C }
  - { offset: 0x1A0559, size: 0x8, addend: 0x0, symName: __ZN4llvm18raw_string_ostreamC1ERNSt3__112basic_stringIcNS1_11char_traitsIcEENS1_9allocatorIcEEEE, symObjAddr: 0x6B64, symBinAddr: 0x100008330, symSize: 0x74 }
  - { offset: 0x1A0606, size: 0x8, addend: 0x0, symName: __ZN4llvm11raw_ostreamlsEPKc, symObjAddr: 0x6C78, symBinAddr: 0x100008444, symSize: 0x84 }
  - { offset: 0x1A0A03, size: 0x8, addend: 0x0, symName: __ZN4llvm6detail18UniqueFunctionBaseINSt3__110unique_ptrINS_11RuntimeDyld13MemoryManagerENS2_14default_deleteIS5_EEEEJEE8CallImplIZNS_3orc15KaleidoscopeJITC1ENS3_INSB_16ExecutionSessionENS6_ISD_EEEENSB_23JITTargetMachineBuilderENS_10DataLayoutEEUlvE_EES8_Pv, symObjAddr: 0x67A0, symBinAddr: 0x100007F6C, symSize: 0x48 }
  - { offset: 0x1A0E72, size: 0x8, addend: 0x0, symName: __ZNSt3__16vectorINS_10shared_ptrIN4llvm3orc19DefinitionGeneratorEEENS_9allocatorIS5_EEE21__push_back_slow_pathIS5_EEPS5_OT_, symObjAddr: 0x6960, symBinAddr: 0x10000812C, symSize: 0x148 }
  - { offset: 0x1A140C, size: 0x8, addend: 0x0, symName: __ZNKSt3__16vectorINS_10shared_ptrIN4llvm3orc19DefinitionGeneratorEEENS_9allocatorIS5_EEE20__throw_length_errorB8ne180100Ev, symObjAddr: 0x6AA8, symBinAddr: 0x100008274, symSize: 0x14 }
  - { offset: 0x1A1420, size: 0x8, addend: 0x0, symName: __ZNSt3__110shared_ptrIN4llvm3orc19DefinitionGeneratorEED1B8ne180100Ev, symObjAddr: 0x6904, symBinAddr: 0x1000080D0, symSize: 0x5C }
  - { offset: 0x1A175B, size: 0x8, addend: 0x0, symName: __ZNKSt3__16vectorINS_10shared_ptrIN4llvm3orc19DefinitionGeneratorEEENS_9allocatorIS5_EEE20__throw_length_errorB8ne180100Ev, symObjAddr: 0x6AA8, symBinAddr: 0x100008274, symSize: 0x14 }
  - { offset: 0x1A1785, size: 0x8, addend: 0x0, symName: __ZNSt3__120__shared_ptr_pointerIPN4llvm3orc29DynamicLibrarySearchGeneratorENS_14default_deleteIS3_EENS_9allocatorIS3_EEED1Ev, symObjAddr: 0x6ABC, symBinAddr: 0x100008288, symSize: 0x4 }
  - { offset: 0x1A17AC, size: 0x8, addend: 0x0, symName: __ZNSt3__120__shared_ptr_pointerIPN4llvm3orc29DynamicLibrarySearchGeneratorENS_14default_deleteIS3_EENS_9allocatorIS3_EEED1Ev, symObjAddr: 0x6ABC, symBinAddr: 0x100008288, symSize: 0x4 }
  - { offset: 0x1A17D0, size: 0x8, addend: 0x0, symName: __ZNSt3__120__shared_ptr_pointerIPN4llvm3orc29DynamicLibrarySearchGeneratorENS_14default_deleteIS3_EENS_9allocatorIS3_EEED1Ev, symObjAddr: 0x6ABC, symBinAddr: 0x100008288, symSize: 0x4 }
  - { offset: 0x1A1807, size: 0x8, addend: 0x0, symName: __ZNSt3__120__shared_ptr_pointerIPN4llvm3orc29DynamicLibrarySearchGeneratorENS_14default_deleteIS3_EENS_9allocatorIS3_EEED0Ev, symObjAddr: 0x6AC0, symBinAddr: 0x10000828C, symSize: 0x14 }
  - { offset: 0x1A186E, size: 0x8, addend: 0x0, symName: __ZNSt3__120__shared_ptr_pointerIPN4llvm3orc29DynamicLibrarySearchGeneratorENS_14default_deleteIS3_EENS_9allocatorIS3_EEE16__on_zero_sharedEv, symObjAddr: 0x6AD4, symBinAddr: 0x1000082A0, symSize: 0x18 }
  - { offset: 0x1A18BF, size: 0x8, addend: 0x0, symName: __ZNKSt3__120__shared_ptr_pointerIPN4llvm3orc29DynamicLibrarySearchGeneratorENS_14default_deleteIS3_EENS_9allocatorIS3_EEE13__get_deleterERKSt9type_info, symObjAddr: 0x6AEC, symBinAddr: 0x1000082B8, symSize: 0x74 }
  - { offset: 0x1A19D3, size: 0x8, addend: 0x0, symName: __ZNSt3__120__shared_ptr_pointerIPN4llvm3orc29DynamicLibrarySearchGeneratorENS_14default_deleteIS3_EENS_9allocatorIS3_EEE21__on_zero_shared_weakEv, symObjAddr: 0x6B60, symBinAddr: 0x10000832C, symSize: 0x4 }
  - { offset: 0x1A1A07, size: 0x8, addend: 0x0, symName: __ZNSt3__120__shared_ptr_pointerIPN4llvm3orc29DynamicLibrarySearchGeneratorENS_14default_deleteIS3_EENS_9allocatorIS3_EEE21__on_zero_shared_weakEv, symObjAddr: 0x6B60, symBinAddr: 0x10000832C, symSize: 0x4 }
  - { offset: 0x1A1A2B, size: 0x8, addend: 0x0, symName: __ZNSt3__120__shared_ptr_pointerIPN4llvm3orc29DynamicLibrarySearchGeneratorENS_14default_deleteIS3_EENS_9allocatorIS3_EEE21__on_zero_shared_weakEv, symObjAddr: 0x6B60, symBinAddr: 0x10000832C, symSize: 0x4 }
  - { offset: 0x1A1A5A, size: 0x8, addend: 0x0, symName: __ZNSt3__120__shared_ptr_pointerIPN4llvm3orc29DynamicLibrarySearchGeneratorENS_14default_deleteIS3_EENS_9allocatorIS3_EEE21__on_zero_shared_weakEv, symObjAddr: 0x6B60, symBinAddr: 0x10000832C, symSize: 0x4 }
  - { offset: 0x1A1A84, size: 0x8, addend: 0x0, symName: __ZNSt3__120__shared_ptr_pointerIPN4llvm3orc29DynamicLibrarySearchGeneratorENS_14default_deleteIS3_EENS_9allocatorIS3_EEE21__on_zero_shared_weakEv, symObjAddr: 0x6B60, symBinAddr: 0x10000832C, symSize: 0x4 }
  - { offset: 0x1A1CA1, size: 0x8, addend: 0x0, symName: __ZN4llvm15MCTargetOptionsD2Ev, symObjAddr: 0x6E1C, symBinAddr: 0x1000085E8, symSize: 0xDC }
  - { offset: 0x1A26F4, size: 0x8, addend: 0x0, symName: __ZNSt3__16vectorINS_12basic_stringIcNS_11char_traitsIcEENS_9allocatorIcEEEENS4_IS6_EEE21__push_back_slow_pathIRKS6_EEPS6_OT_, symObjAddr: 0x7440, symBinAddr: 0x100008C0C, symSize: 0x1D4 }
  - { offset: 0x1A30B7, size: 0x8, addend: 0x0, symName: __ZL19ParseIdentifierExprv, symObjAddr: 0x7A78, symBinAddr: 0x100009244, symSize: 0x2F4 }
  - { offset: 0x1A3E1F, size: 0x8, addend: 0x0, symName: __ZL13ParseBinOpRHSiNSt3__110unique_ptrI7ExprASTNS_14default_deleteIS1_EEEE, symObjAddr: 0x768C, symBinAddr: 0x100008E58, symSize: 0x3EC }
  - { offset: 0x1A521A, size: 0x8, addend: 0x0, symName: __ZNKSt3__16vectorINS_12basic_stringIcNS_11char_traitsIcEENS_9allocatorIcEEEENS4_IS6_EEE20__throw_length_errorB8ne180100Ev, symObjAddr: 0x7678, symBinAddr: 0x100008E44, symSize: 0x14 }
  - { offset: 0x1A5244, size: 0x8, addend: 0x0, symName: __ZL13ParseBinOpRHSiNSt3__110unique_ptrI7ExprASTNS_14default_deleteIS1_EEEE, symObjAddr: 0x768C, symBinAddr: 0x100008E58, symSize: 0x3EC }
  - { offset: 0x1A524F, size: 0x8, addend: 0x0, symName: __ZNSt3__114__split_bufferINS_12basic_stringIcNS_11char_traitsIcEENS_9allocatorIcEEEERNS4_IS6_EEED1Ev, symObjAddr: 0x7614, symBinAddr: 0x100008DE0, symSize: 0x64 }
  - { offset: 0x1A5BD6, size: 0x8, addend: 0x0, symName: __ZNSt3__16vectorINS_10unique_ptrI7ExprASTNS_14default_deleteIS2_EEEENS_9allocatorIS5_EEE21__push_back_slow_pathIS5_EEPS5_OT_, symObjAddr: 0x7DE0, symBinAddr: 0x1000095AC, symSize: 0x1C4 }
  - { offset: 0x1A6242, size: 0x8, addend: 0x0, symName: __ZNKSt3__16vectorINS_10unique_ptrI7ExprASTNS_14default_deleteIS2_EEEENS_9allocatorIS5_EEE20__throw_length_errorB8ne180100Ev, symObjAddr: 0x7FA4, symBinAddr: 0x100009770, symSize: 0x14 }
  - { offset: 0x1A6256, size: 0x8, addend: 0x0, symName: __ZNSt3__16vectorINS_10unique_ptrI7ExprASTNS_14default_deleteIS2_EEEENS_9allocatorIS5_EEED1B8ne180100Ev, symObjAddr: 0x7D6C, symBinAddr: 0x100009538, symSize: 0x74 }
  - { offset: 0x1A6668, size: 0x8, addend: 0x0, symName: __ZNKSt3__16vectorINS_10unique_ptrI7ExprASTNS_14default_deleteIS2_EEEENS_9allocatorIS5_EEE20__throw_length_errorB8ne180100Ev, symObjAddr: 0x7FA4, symBinAddr: 0x100009770, symSize: 0x14 }
  - { offset: 0x1A6692, size: 0x8, addend: 0x0, symName: __ZNKSt3__114default_deleteI11FunctionASTEclB8ne180100EPS1_, symObjAddr: 0x7FB8, symBinAddr: 0x100009784, symSize: 0xB4 }
  - { offset: 0x1A68CD, size: 0x8, addend: 0x0, symName: __ZN4llvm3orc15SymbolStringPtrD1Ev, symObjAddr: 0x89A8, symBinAddr: 0x10000A174, symSize: 0x64 }
  - { offset: 0x1A6E2C, size: 0x8, addend: 0x0, symName: __ZNSt3__110shared_ptrIN4llvm3orc17ThreadSafeContext5StateEED1B8ne180100Ev, symObjAddr: 0x8684, symBinAddr: 0x100009E50, symSize: 0x5C }
  - { offset: 0x1A6F01, size: 0x8, addend: 0x0, symName: __ZNSt3__120__shared_ptr_emplaceIN4llvm3orc17ThreadSafeContext5StateENS_9allocatorIS4_EEED1Ev, symObjAddr: 0x86E0, symBinAddr: 0x100009EAC, symSize: 0x14 }
  - { offset: 0x1A6F25, size: 0x8, addend: 0x0, symName: __ZNSt3__120__shared_ptr_emplaceIN4llvm3orc17ThreadSafeContext5StateENS_9allocatorIS4_EEED1Ev, symObjAddr: 0x86E0, symBinAddr: 0x100009EAC, symSize: 0x14 }
  - { offset: 0x1A6F5C, size: 0x8, addend: 0x0, symName: __ZNSt3__120__shared_ptr_emplaceIN4llvm3orc17ThreadSafeContext5StateENS_9allocatorIS4_EEED0Ev, symObjAddr: 0x86F4, symBinAddr: 0x100009EC0, symSize: 0x24 }
  - { offset: 0x1A7089, size: 0x8, addend: 0x0, symName: __ZNSt3__120__shared_ptr_emplaceIN4llvm3orc17ThreadSafeContext5StateENS_9allocatorIS4_EEE16__on_zero_sharedEv, symObjAddr: 0x8718, symBinAddr: 0x100009EE4, symSize: 0x40 }
  - { offset: 0x1A71E3, size: 0x8, addend: 0x0, symName: __ZNSt3__120__shared_ptr_emplaceIN4llvm3orc17ThreadSafeContext5StateENS_9allocatorIS4_EEE21__on_zero_shared_weakEv, symObjAddr: 0x8758, symBinAddr: 0x100009F24, symSize: 0x4 }
  - { offset: 0x1A7218, size: 0x8, addend: 0x0, symName: __ZNSt3__120__shared_ptr_emplaceIN4llvm3orc17ThreadSafeContext5StateENS_9allocatorIS4_EEE21__on_zero_shared_weakEv, symObjAddr: 0x8758, symBinAddr: 0x100009F24, symSize: 0x4 }
  - { offset: 0x1A723D, size: 0x8, addend: 0x0, symName: __ZNSt3__120__shared_ptr_emplaceIN4llvm3orc17ThreadSafeContext5StateENS_9allocatorIS4_EEE21__on_zero_shared_weakEv, symObjAddr: 0x8758, symBinAddr: 0x100009F24, symSize: 0x4 }
  - { offset: 0x1A7262, size: 0x8, addend: 0x0, symName: __ZNSt3__120__shared_ptr_emplaceIN4llvm3orc17ThreadSafeContext5StateENS_9allocatorIS4_EEE21__on_zero_shared_weakEv, symObjAddr: 0x8758, symBinAddr: 0x100009F24, symSize: 0x4 }
  - { offset: 0x1A7292, size: 0x8, addend: 0x0, symName: __ZNSt3__120__shared_ptr_emplaceIN4llvm3orc17ThreadSafeContext5StateENS_9allocatorIS4_EEE21__on_zero_shared_weakEv, symObjAddr: 0x8758, symBinAddr: 0x100009F24, symSize: 0x4 }
  - { offset: 0x1A72BD, size: 0x8, addend: 0x0, symName: __ZNSt3__120__shared_ptr_emplaceIN4llvm3orc17ThreadSafeContext5StateENS_9allocatorIS4_EEE21__on_zero_shared_weakEv, symObjAddr: 0x8758, symBinAddr: 0x100009F24, symSize: 0x4 }
  - { offset: 0x1A73CF, size: 0x8, addend: 0x0, symName: __ZNSt3__117bad_function_callD1Ev, symObjAddr: 0x884C, symBinAddr: 0x10000A018, symSize: 0x4 }
  - { offset: 0x1A73F3, size: 0x8, addend: 0x0, symName: __ZNSt3__117bad_function_callD1Ev, symObjAddr: 0x884C, symBinAddr: 0x10000A018, symSize: 0x4 }
  - { offset: 0x1A7428, size: 0x8, addend: 0x0, symName: __ZNSt3__117bad_function_callD0Ev, symObjAddr: 0x8850, symBinAddr: 0x10000A01C, symSize: 0x14 }
  - { offset: 0x1A7ACB, size: 0x8, addend: 0x0, symName: __ZN4llvm8DenseMapIPNS_4LoopENSt3__14listINS3_4pairIPNS_11AnalysisKeyENS3_10unique_ptrINS_6detail21AnalysisResultConceptIS1_NS_17PreservedAnalysesENS_15AnalysisManagerIS1_JRNS_27LoopStandardAnalysisResultsEEE11InvalidatorEEENS3_14default_deleteISH_EEEEEENS3_9allocatorISL_EEEENS_12DenseMapInfoIS2_vEENS9_12DenseMapPairIS2_SO_EEED2Ev, symObjAddr: 0x8E74, symBinAddr: 0x10000A640, symSize: 0xE8 }
  - { offset: 0x1A83B7, size: 0x8, addend: 0x0, symName: __ZN4llvm8DenseMapIPNS_8FunctionENSt3__14listINS3_4pairIPNS_11AnalysisKeyENS3_10unique_ptrINS_6detail21AnalysisResultConceptIS1_NS_17PreservedAnalysesENS_15AnalysisManagerIS1_JEE11InvalidatorEEENS3_14default_deleteISF_EEEEEENS3_9allocatorISJ_EEEENS_12DenseMapInfoIS2_vEENS9_12DenseMapPairIS2_SM_EEED2Ev, symObjAddr: 0x902C, symBinAddr: 0x10000A7F8, symSize: 0xE8 }
  - { offset: 0x1A8CA1, size: 0x8, addend: 0x0, symName: __ZN4llvm8DenseMapIPNS_13LazyCallGraph3SCCENSt3__14listINS4_4pairIPNS_11AnalysisKeyENS4_10unique_ptrINS_6detail21AnalysisResultConceptIS2_NS_17PreservedAnalysesENS_15AnalysisManagerIS2_JRS1_EE11InvalidatorEEENS4_14default_deleteISH_EEEEEENS4_9allocatorISL_EEEENS_12DenseMapInfoIS3_vEENSA_12DenseMapPairIS3_SO_EEED2Ev, symObjAddr: 0x91E4, symBinAddr: 0x10000A9B0, symSize: 0xE8 }
  - { offset: 0x1A958D, size: 0x8, addend: 0x0, symName: __ZN4llvm8DenseMapIPNS_6ModuleENSt3__14listINS3_4pairIPNS_11AnalysisKeyENS3_10unique_ptrINS_6detail21AnalysisResultConceptIS1_NS_17PreservedAnalysesENS_15AnalysisManagerIS1_JEE11InvalidatorEEENS3_14default_deleteISF_EEEEEENS3_9allocatorISJ_EEEENS_12DenseMapInfoIS2_vEENS9_12DenseMapPairIS2_SM_EEED2Ev, symObjAddr: 0x939C, symBinAddr: 0x10000AB68, symSize: 0xE8 }
  - { offset: 0x1AAB97, size: 0x8, addend: 0x0, symName: __ZN4llvm9StringMapINSt3__113unordered_mapINS1_4pairIyyEEfNS_9pair_hashIyyEENS1_8equal_toIS4_EENS1_9allocatorINS3_IKS4_fEEEEEENS_15MallocAllocatorEED2Ev, symObjAddr: 0x9A54, symBinAddr: 0x10000B220, symSize: 0xB4 }
  - { offset: 0x1AB04E, size: 0x8, addend: 0x0, symName: __ZN4llvm9StringMapINS_11SmallVectorINSt3__110unique_ptrINS_5TimerENS2_14default_deleteIS4_EEEELj4EEENS_15MallocAllocatorEED2Ev, symObjAddr: 0x9B08, symBinAddr: 0x10000B2D4, symSize: 0xDC }
  - { offset: 0x1ABF05, size: 0x8, addend: 0x0, symName: __ZNSt3__110unique_ptrINS_11__tree_nodeINS_12__value_typeINS_12basic_stringIcNS_11char_traitsIcEENS_9allocatorIcEEEEPN4llvm5ValueEEEPvEENS_22__tree_node_destructorINS6_ISE_EEEEED1B8ne180100Ev, symObjAddr: 0x9E90, symBinAddr: 0x10000B65C, symSize: 0x5C }
  - { offset: 0x1AC58B, size: 0x8, addend: 0x0, symName: __ZN4llvm19InstructionWorklistC2EOS0_, symObjAddr: 0xA320, symBinAddr: 0x10000BAEC, symSize: 0x154 }
  - { offset: 0x1ACEA4, size: 0x8, addend: 0x0, symName: __ZNKSt3__16vectorINS_10unique_ptrIN4llvm6detail11PassConceptINS2_8FunctionENS2_15AnalysisManagerIS5_JEEEJEEENS_14default_deleteIS8_EEEENS_9allocatorISB_EEE20__throw_length_errorB8ne180100Ev, symObjAddr: 0xA30C, symBinAddr: 0x10000BAD8, symSize: 0x14 }
  - { offset: 0x1ACECE, size: 0x8, addend: 0x0, symName: __ZN4llvm19InstructionWorklistC2EOS0_, symObjAddr: 0xA320, symBinAddr: 0x10000BAEC, symSize: 0x154 }
  - { offset: 0x1AD201, size: 0x8, addend: 0x0, symName: __ZN4llvm15SmallVectorImplIPNS_11InstructionEEaSEOS3_, symObjAddr: 0xA474, symBinAddr: 0x10000BC40, symSize: 0x1A8 }
  - { offset: 0x1AD8A8, size: 0x8, addend: 0x0, symName: __ZN4llvm6detail9PassModelINS_8FunctionENS_15InstCombinePassENS_17PreservedAnalysesENS_15AnalysisManagerIS2_JEEEJEED1Ev, symObjAddr: 0xA61C, symBinAddr: 0x10000BDE8, symSize: 0x88 }
  - { offset: 0x1ADA8E, size: 0x8, addend: 0x0, symName: __ZN4llvm6detail9PassModelINS_8FunctionENS_15InstCombinePassENS_17PreservedAnalysesENS_15AnalysisManagerIS2_JEEEJEED1Ev, symObjAddr: 0xA61C, symBinAddr: 0x10000BDE8, symSize: 0x88 }
  - { offset: 0x1ADE58, size: 0x8, addend: 0x0, symName: __ZN4llvm6detail9PassModelINS_8FunctionENS_15InstCombinePassENS_17PreservedAnalysesENS_15AnalysisManagerIS2_JEEEJEED0Ev, symObjAddr: 0xA6A4, symBinAddr: 0x10000BE70, symSize: 0x88 }
  - { offset: 0x1AE228, size: 0x8, addend: 0x0, symName: __ZN4llvm6detail9PassModelINS_8FunctionENS_15InstCombinePassENS_17PreservedAnalysesENS_15AnalysisManagerIS2_JEEEJEE3runERS2_RS6_, symObjAddr: 0xA72C, symBinAddr: 0x10000BEF8, symSize: 0x8 }
  - { offset: 0x1AE26B, size: 0x8, addend: 0x0, symName: __ZN4llvm6detail9PassModelINS_8FunctionENS_15InstCombinePassENS_17PreservedAnalysesENS_15AnalysisManagerIS2_JEEEJEE13printPipelineERNS_11raw_ostreamENS_12function_refIFNS_9StringRefESB_EEE, symObjAddr: 0xA734, symBinAddr: 0x10000BF00, symSize: 0x8 }
  - { offset: 0x1AE2AC, size: 0x8, addend: 0x0, symName: __ZNK4llvm6detail9PassModelINS_8FunctionENS_15InstCombinePassENS_17PreservedAnalysesENS_15AnalysisManagerIS2_JEEEJEE4nameEv, symObjAddr: 0xA73C, symBinAddr: 0x10000BF08, symSize: 0x4 }
  - { offset: 0x1AE2D4, size: 0x8, addend: 0x0, symName: __ZNK4llvm6detail9PassModelINS_8FunctionENS_15InstCombinePassENS_17PreservedAnalysesENS_15AnalysisManagerIS2_JEEEJEE4nameEv, symObjAddr: 0xA73C, symBinAddr: 0x10000BF08, symSize: 0x4 }
  - { offset: 0x1AE2DF, size: 0x8, addend: 0x0, symName: __ZN4llvm13PassInfoMixinINS_15InstCombinePassEE4nameEv, symObjAddr: 0xA748, symBinAddr: 0x10000BF14, symSize: 0x13C }
  - { offset: 0x1AE5CE, size: 0x8, addend: 0x0, symName: __ZN4llvm6detail9PassModelINS_8FunctionENS_15ReassociatePassENS_17PreservedAnalysesENS_15AnalysisManagerIS2_JEEEJEEC1ES3_, symObjAddr: 0xA884, symBinAddr: 0x10000C050, symSize: 0x34 }
  - { offset: 0x1AE5E1, size: 0x8, addend: 0x0, symName: __ZNK4llvm6detail9PassModelINS_8FunctionENS_15InstCombinePassENS_17PreservedAnalysesENS_15AnalysisManagerIS2_JEEEJEE10isRequiredEv, symObjAddr: 0xA740, symBinAddr: 0x10000BF0C, symSize: 0x8 }
  - { offset: 0x1AEBED, size: 0x8, addend: 0x0, symName: __ZN4llvm6detail9PassModelINS_8FunctionENS_15ReassociatePassENS_17PreservedAnalysesENS_15AnalysisManagerIS2_JEEEJEED1Ev, symObjAddr: 0xAA1C, symBinAddr: 0x10000C1E8, symSize: 0x34 }
  - { offset: 0x1AEC76, size: 0x8, addend: 0x0, symName: __ZN4llvm6detail9PassModelINS_8FunctionENS_15ReassociatePassENS_17PreservedAnalysesENS_15AnalysisManagerIS2_JEEEJEED0Ev, symObjAddr: 0xAA50, symBinAddr: 0x10000C21C, symSize: 0x34 }
  - { offset: 0x1AED0B, size: 0x8, addend: 0x0, symName: __ZN4llvm6detail9PassModelINS_8FunctionENS_15ReassociatePassENS_17PreservedAnalysesENS_15AnalysisManagerIS2_JEEEJEE3runERS2_RS6_, symObjAddr: 0xAA84, symBinAddr: 0x10000C250, symSize: 0x8 }
  - { offset: 0x1AEDC6, size: 0x8, addend: 0x0, symName: __ZN4llvm6detail9PassModelINS_8FunctionENS_15ReassociatePassENS_17PreservedAnalysesENS_15AnalysisManagerIS2_JEEEJEE13printPipelineERNS_11raw_ostreamENS_12function_refIFNS_9StringRefESB_EEE, symObjAddr: 0xAA8C, symBinAddr: 0x10000C258, symSize: 0x98 }
  - { offset: 0x1AEEA0, size: 0x8, addend: 0x0, symName: __ZN4llvm13PassInfoMixinINS_15ReassociatePassEE4nameEv, symObjAddr: 0xAB30, symBinAddr: 0x10000C2FC, symSize: 0x13C }
  - { offset: 0x1AF18F, size: 0x8, addend: 0x0, symName: __ZN4llvm6detail9PassModelINS_8FunctionENS_7GVNPassENS_17PreservedAnalysesENS_15AnalysisManagerIS2_JEEEJEEC1ES3_, symObjAddr: 0xAC6C, symBinAddr: 0x10000C438, symSize: 0x34 }
  - { offset: 0x1AF1A2, size: 0x8, addend: 0x0, symName: __ZNK4llvm6detail9PassModelINS_8FunctionENS_15ReassociatePassENS_17PreservedAnalysesENS_15AnalysisManagerIS2_JEEEJEE4nameEv, symObjAddr: 0xAB24, symBinAddr: 0x10000C2F0, symSize: 0x4 }
  - { offset: 0x1AF1CA, size: 0x8, addend: 0x0, symName: __ZNK4llvm6detail9PassModelINS_8FunctionENS_15ReassociatePassENS_17PreservedAnalysesENS_15AnalysisManagerIS2_JEEEJEE4nameEv, symObjAddr: 0xAB24, symBinAddr: 0x10000C2F0, symSize: 0x4 }
  - { offset: 0x1AF1D5, size: 0x8, addend: 0x0, symName: __ZNK4llvm6detail9PassModelINS_8FunctionENS_15ReassociatePassENS_17PreservedAnalysesENS_15AnalysisManagerIS2_JEEEJEE10isRequiredEv, symObjAddr: 0xAB28, symBinAddr: 0x10000C2F4, symSize: 0x8 }
  - { offset: 0x1AF6B4, size: 0x8, addend: 0x0, symName: __ZN4llvm15SmallVectorImplIPNS_10BasicBlockEEaSEOS3_, symObjAddr: 0xAF80, symBinAddr: 0x10000C74C, symSize: 0x1A8 }
  - { offset: 0x1AFD5B, size: 0x8, addend: 0x0, symName: __ZN4llvm20BumpPtrAllocatorImplINS_15MallocAllocatorELm4096ELm4096ELm128EEC2EOS2_, symObjAddr: 0xB128, symBinAddr: 0x10000C8F4, symSize: 0xD4 }
  - { offset: 0x1AFD6E, size: 0x8, addend: 0x0, symName: __ZN4llvm20BumpPtrAllocatorImplINS_15MallocAllocatorELm4096ELm4096ELm128EEC2EOS2_, symObjAddr: 0xB128, symBinAddr: 0x10000C8F4, symSize: 0xD4 }
  - { offset: 0x1B00A8, size: 0x8, addend: 0x0, symName: __ZN4llvm13SmallDenseMapIPNS_5ValueEjLj4ENS_12DenseMapInfoIS2_vEENS_6detail12DenseMapPairIS2_jEEE4swapERS8_, symObjAddr: 0xB6D8, symBinAddr: 0x10000CEA4, symSize: 0x4C4 }
  - { offset: 0x1B0506, size: 0x8, addend: 0x0, symName: __ZN4llvm15SmallVectorImplINSt3__14pairIPNS_5ValueES4_EEEaSEOS6_, symObjAddr: 0xBB9C, symBinAddr: 0x10000D368, symSize: 0x2D4 }
  - { offset: 0x1B051A, size: 0x8, addend: 0x0, symName: __ZN4llvm15SmallVectorImplINSt3__14pairIPNS_5ValueES4_EEEaSEOS6_, symObjAddr: 0xBB9C, symBinAddr: 0x10000D368, symSize: 0x2D4 }
  - { offset: 0x1B0ADC, size: 0x8, addend: 0x0, symName: __ZN4llvm15SmallVectorImplINSt3__14pairIPNS_11InstructionEjEEEaSEOS6_, symObjAddr: 0xBE70, symBinAddr: 0x10000D63C, symSize: 0x1BC }
  - { offset: 0x1B0AEF, size: 0x8, addend: 0x0, symName: __ZN4llvm15SmallVectorImplINSt3__14pairIPNS_11InstructionEjEEEaSEOS6_, symObjAddr: 0xBE70, symBinAddr: 0x10000D63C, symSize: 0x1BC }
  - { offset: 0x1B1077, size: 0x8, addend: 0x0, symName: __ZN4llvm6detail9PassModelINS_8FunctionENS_7GVNPassENS_17PreservedAnalysesENS_15AnalysisManagerIS2_JEEEJEED1Ev, symObjAddr: 0xC02C, symBinAddr: 0x10000D7F8, symSize: 0x34 }
  - { offset: 0x1B12F7, size: 0x8, addend: 0x0, symName: __ZN4llvm15SmallVectorImplIPvEaSEOS2_, symObjAddr: 0xB1FC, symBinAddr: 0x10000C9C8, symSize: 0x1A8 }
  - { offset: 0x1B199E, size: 0x8, addend: 0x0, symName: __ZN4llvm15SmallVectorImplINSt3__14pairIPvmEEEaSEOS5_, symObjAddr: 0xB3A4, symBinAddr: 0x10000CB70, symSize: 0x334 }
  - { offset: 0x1B19B1, size: 0x8, addend: 0x0, symName: __ZN4llvm15SmallVectorImplINSt3__14pairIPvmEEEaSEOS5_, symObjAddr: 0xB3A4, symBinAddr: 0x10000CB70, symSize: 0x334 }
  - { offset: 0x1B1F75, size: 0x8, addend: 0x0, symName: __ZN4llvm13SmallDenseMapIPNS_5ValueEjLj4ENS_12DenseMapInfoIS2_vEENS_6detail12DenseMapPairIS2_jEEE4swapERS8_, symObjAddr: 0xB6D8, symBinAddr: 0x10000CEA4, symSize: 0x4C4 }
  - { offset: 0x1B26FF, size: 0x8, addend: 0x0, symName: __ZN4llvm6detail9PassModelINS_8FunctionENS_7GVNPassENS_17PreservedAnalysesENS_15AnalysisManagerIS2_JEEEJEED1Ev, symObjAddr: 0xC02C, symBinAddr: 0x10000D7F8, symSize: 0x34 }
  - { offset: 0x1B2788, size: 0x8, addend: 0x0, symName: __ZN4llvm6detail9PassModelINS_8FunctionENS_7GVNPassENS_17PreservedAnalysesENS_15AnalysisManagerIS2_JEEEJEED0Ev, symObjAddr: 0xC060, symBinAddr: 0x10000D82C, symSize: 0x34 }
  - { offset: 0x1B281D, size: 0x8, addend: 0x0, symName: __ZN4llvm6detail9PassModelINS_8FunctionENS_7GVNPassENS_17PreservedAnalysesENS_15AnalysisManagerIS2_JEEEJEE3runERS2_RS6_, symObjAddr: 0xC094, symBinAddr: 0x10000D860, symSize: 0x8 }
  - { offset: 0x1B2860, size: 0x8, addend: 0x0, symName: __ZN4llvm6detail9PassModelINS_8FunctionENS_7GVNPassENS_17PreservedAnalysesENS_15AnalysisManagerIS2_JEEEJEE13printPipelineERNS_11raw_ostreamENS_12function_refIFNS_9StringRefESB_EEE, symObjAddr: 0xC09C, symBinAddr: 0x10000D868, symSize: 0x8 }
  - { offset: 0x1B28A1, size: 0x8, addend: 0x0, symName: __ZNK4llvm6detail9PassModelINS_8FunctionENS_7GVNPassENS_17PreservedAnalysesENS_15AnalysisManagerIS2_JEEEJEE4nameEv, symObjAddr: 0xC0A4, symBinAddr: 0x10000D870, symSize: 0x4 }
  - { offset: 0x1B28C9, size: 0x8, addend: 0x0, symName: __ZNK4llvm6detail9PassModelINS_8FunctionENS_7GVNPassENS_17PreservedAnalysesENS_15AnalysisManagerIS2_JEEEJEE4nameEv, symObjAddr: 0xC0A4, symBinAddr: 0x10000D870, symSize: 0x4 }
  - { offset: 0x1B28D4, size: 0x8, addend: 0x0, symName: __ZN4llvm13PassInfoMixinINS_7GVNPassEE4nameEv, symObjAddr: 0xC0B0, symBinAddr: 0x10000D87C, symSize: 0x13C }
  - { offset: 0x1B2BC3, size: 0x8, addend: 0x0, symName: __ZN4llvm6detail9PassModelINS_8FunctionENS_15SimplifyCFGPassENS_17PreservedAnalysesENS_15AnalysisManagerIS2_JEEEJEED1Ev, symObjAddr: 0xC1EC, symBinAddr: 0x10000D9B8, symSize: 0x4 }
  - { offset: 0x1B2BD6, size: 0x8, addend: 0x0, symName: __ZNK4llvm6detail9PassModelINS_8FunctionENS_7GVNPassENS_17PreservedAnalysesENS_15AnalysisManagerIS2_JEEEJEE10isRequiredEv, symObjAddr: 0xC0A8, symBinAddr: 0x10000D874, symSize: 0x8 }
  - { offset: 0x1B2BFD, size: 0x8, addend: 0x0, symName: __ZN4llvm6detail9PassModelINS_8FunctionENS_15SimplifyCFGPassENS_17PreservedAnalysesENS_15AnalysisManagerIS2_JEEEJEED1Ev, symObjAddr: 0xC1EC, symBinAddr: 0x10000D9B8, symSize: 0x4 }
  - { offset: 0x1B2C28, size: 0x8, addend: 0x0, symName: __ZN4llvm6detail9PassModelINS_8FunctionENS_15SimplifyCFGPassENS_17PreservedAnalysesENS_15AnalysisManagerIS2_JEEEJEED0Ev, symObjAddr: 0xC1F0, symBinAddr: 0x10000D9BC, symSize: 0x4 }
  - { offset: 0x1B2C53, size: 0x8, addend: 0x0, symName: __ZN4llvm6detail9PassModelINS_8FunctionENS_15SimplifyCFGPassENS_17PreservedAnalysesENS_15AnalysisManagerIS2_JEEEJEE3runERS2_RS6_, symObjAddr: 0xC1F4, symBinAddr: 0x10000D9C0, symSize: 0x8 }
  - { offset: 0x1B2C96, size: 0x8, addend: 0x0, symName: __ZN4llvm6detail9PassModelINS_8FunctionENS_15SimplifyCFGPassENS_17PreservedAnalysesENS_15AnalysisManagerIS2_JEEEJEE13printPipelineERNS_11raw_ostreamENS_12function_refIFNS_9StringRefESB_EEE, symObjAddr: 0xC1FC, symBinAddr: 0x10000D9C8, symSize: 0x8 }
  - { offset: 0x1B2CD7, size: 0x8, addend: 0x0, symName: __ZNK4llvm6detail9PassModelINS_8FunctionENS_15SimplifyCFGPassENS_17PreservedAnalysesENS_15AnalysisManagerIS2_JEEEJEE4nameEv, symObjAddr: 0xC204, symBinAddr: 0x10000D9D0, symSize: 0x4 }
  - { offset: 0x1B2CFF, size: 0x8, addend: 0x0, symName: __ZNK4llvm6detail9PassModelINS_8FunctionENS_15SimplifyCFGPassENS_17PreservedAnalysesENS_15AnalysisManagerIS2_JEEEJEE4nameEv, symObjAddr: 0xC204, symBinAddr: 0x10000D9D0, symSize: 0x4 }
  - { offset: 0x1B2D0A, size: 0x8, addend: 0x0, symName: __ZN4llvm13PassInfoMixinINS_15SimplifyCFGPassEE4nameEv, symObjAddr: 0xC210, symBinAddr: 0x10000D9DC, symSize: 0x13C }
  - { offset: 0x1B300C, size: 0x8, addend: 0x0, symName: __ZNK4llvm6detail9PassModelINS_8FunctionENS_15SimplifyCFGPassENS_17PreservedAnalysesENS_15AnalysisManagerIS2_JEEEJEE10isRequiredEv, symObjAddr: 0xC208, symBinAddr: 0x10000D9D4, symSize: 0x8 }
...
